; Function Attrs: nounwind uwtable
define noalias nonnull ptr @l_Lean_Compiler_LCNF_PassInstaller_installBeforeEachOccurrence(ptr noundef %0, ptr noundef %1) local_unnamed_addr #1 {
  %3 = ptrtoint ptr %0 to i64
  %4 = and i64 %3, 1
  %.not = icmp eq i64 %4, 0
  br i1 %.not, label %5, label %lean_inc.exit

5:                                                ; preds = %2
  %.val.i = load i32, ptr %0, align 4, !tbaa !4
  %6 = icmp sgt i32 %.val.i, 0
  br i1 %6, label %7, label %9, !prof !9

7:                                                ; preds = %5
  %8 = add nuw i32 %.val.i, 1
  store i32 %8, ptr %0, align 4, !tbaa !4
  br label %lean_inc.exit

9:                                                ; preds = %5
  %.not.i = icmp eq i32 %.val.i, 0
  br i1 %.not.i, label %lean_inc.exit, label %10

10:                                               ; preds = %9
  tail call void @lean_inc_ref_cold(ptr noundef nonnull %0) #6
  br label %lean_inc.exit

lean_inc.exit:                                    ; preds = %10, %9, %7, %2
  tail call void @lean_inc_heartbeat() #6
  %11 = tail call noalias ptr @mi_malloc_small(i64 noundef 40) #6
  %12 = icmp eq ptr %11, null
  br i1 %12, label %13, label %lean_alloc_closure.exit

13:                                               ; preds = %lean_inc.exit
  tail call void @lean_internal_panic_out_of_memory() #7
  unreachable

lean_alloc_closure.exit:                          ; preds = %lean_inc.exit
  %14 = getelementptr inbounds nuw i8, ptr %11, i64 4
  store i32 1, ptr %11, align 4, !tbaa !4
  store i32 -184549336, ptr %14, align 4
  %15 = getelementptr inbounds nuw i8, ptr %11, i64 8
  store ptr @l_Lean_Compiler_LCNF_PassInstaller_installBefore, ptr %15, align 8, !tbaa !10
  %16 = getelementptr inbounds nuw i8, ptr %11, i64 16
  store i16 3, ptr %16, align 8, !tbaa !14
  %17 = getelementptr inbounds nuw i8, ptr %11, i64 18
  store i16 2, ptr %17, align 2, !tbaa !14
  %18 = getelementptr inbounds nuw i8, ptr %11, i64 24
  store ptr %0, ptr %18, align 8, !tbaa !10
  %19 = getelementptr inbounds nuw i8, ptr %11, i64 32
  store ptr %1, ptr %19, align 8, !tbaa !10
  tail call void @lean_inc_heartbeat() #6
  %20 = tail call noalias ptr @mi_malloc_small(i64 noundef 40) #6
  %21 = icmp eq ptr %20, null
  br i1 %21, label %22, label %lean_alloc_closure.exit10

22:                                               ; preds = %lean_alloc_closure.exit
  tail call void @lean_internal_panic_out_of_memory() #7
  unreachable

lean_alloc_closure.exit10:                        ; preds = %lean_alloc_closure.exit
  %23 = getelementptr inbounds nuw i8, ptr %20, i64 4
  store i32 1, ptr %20, align 4, !tbaa !4
  store i32 -184549336, ptr %23, align 4
  %24 = getelementptr inbounds nuw i8, ptr %20, i64 8
  store ptr @l_Lean_Compiler_LCNF_PassInstaller_withEachOccurrence___elambda__1, ptr %24, align 8, !tbaa !10
  %25 = getelementptr inbounds nuw i8, ptr %20, i64 16
  store i16 6, ptr %25, align 8, !tbaa !14
  %26 = getelementptr inbounds nuw i8, ptr %20, i64 18
  store i16 2, ptr %26, align 2, !tbaa !14
  %27 = getelementptr inbounds nuw i8, ptr %20, i64 24
  store ptr %0, ptr %27, align 8, !tbaa !10
  %28 = getelementptr inbounds nuw i8, ptr %20, i64 32
  store ptr %11, ptr %28, align 8, !tbaa !10
  ret ptr %20
}